target datalayout = "e-m:e-p270:32:32-p271:32:32-p272:64:64-i64:64-f80:128-n8:16:32:64-S128"
target triple = "x86_64-pc-linux-gnu"

@.str = private unnamed_addr constant [3 x i8] c"%d\00", align 1
@.str.1 = private unnamed_addr constant [28 x i8] c"(%d,%d,%d)-(%d,%d,%d)=%.2f\0A\00", align 1

; Function Attrs: noinline nounwind uwtable
define dso_local i32 @main() #0 {
  %1 = alloca i32, align 4
  %2 = alloca [10 x [3 x i32]], align 16
  %3 = alloca i32, align 4
  %4 = alloca i32, align 4
  %5 = alloca i32, align 4
  %6 = alloca i32, align 4
  %7 = alloca i32, align 4
  %8 = alloca [45 x i32], align 16
  %9 = alloca [45 x i32], align 16
  %10 = alloca i32, align 4
  %11 = alloca i32, align 4
  %12 = alloca [45 x float], align 16
  %13 = alloca float, align 4
  %14 = alloca float, align 4
  store i32 0, i32* %1, align 4
  store i32 0, i32* %7, align 4
  %15 = call i32 (i8*, ...) @__isoc99_scanf(i8* getelementptr inbounds ([3 x i8], [3 x i8]* @.str, i64 0, i64 0), i32* %6)
  store i32 0, i32* %3, align 4
  br label %16

16:                                               ; preds = %36, %0
  %17 = load i32, i32* %3, align 4
  %18 = load i32, i32* %6, align 4
  %19 = icmp slt i32 %17, %18
  br i1 %19, label %20, label %39

20:                                               ; preds = %16
  store i32 0, i32* %4, align 4
  br label %21

21:                                               ; preds = %32, %20
  %22 = load i32, i32* %4, align 4
  %23 = icmp slt i32 %22, 3
  br i1 %23, label %24, label %35

24:                                               ; preds = %21
  %25 = load i32, i32* %3, align 4
  %26 = sext i32 %25 to i64
  %27 = getelementptr inbounds [10 x [3 x i32]], [10 x [3 x i32]]* %2, i64 0, i64 %26
  %28 = load i32, i32* %4, align 4
  %29 = sext i32 %28 to i64
  %30 = getelementptr inbounds [3 x i32], [3 x i32]* %27, i64 0, i64 %29
  %31 = call i32 (i8*, ...) @__isoc99_scanf(i8* getelementptr inbounds ([3 x i8], [3 x i8]* @.str, i64 0, i64 0), i32* %30)
  br label %32

32:                                               ; preds = %24
  %33 = load i32, i32* %4, align 4
  %34 = add nsw i32 %33, 1
  store i32 %34, i32* %4, align 4
  br label %21

35:                                               ; preds = %21
  br label %36

36:                                               ; preds = %35
  %37 = load i32, i32* %3, align 4
  %38 = add nsw i32 %37, 1
  store i32 %38, i32* %3, align 4
  br label %16

39:                                               ; preds = %16
  store i32 0, i32* %3, align 4
  br label %40

40:                                               ; preds = %145, %39
  %41 = load i32, i32* %3, align 4
  %42 = load i32, i32* %6, align 4
  %43 = icmp slt i32 %41, %42
  br i1 %43, label %44, label %148

44:                                               ; preds = %40
  %45 = load i32, i32* %3, align 4
  %46 = add nsw i32 %45, 1
  store i32 %46, i32* %5, align 4
  br label %47

47:                                               ; preds = %141, %44
  %48 = load i32, i32* %5, align 4
  %49 = load i32, i32* %6, align 4
  %50 = icmp slt i32 %48, %49
  br i1 %50, label %51, label %144

51:                                               ; preds = %47
  %52 = load i32, i32* %3, align 4
  %53 = sext i32 %52 to i64
  %54 = getelementptr inbounds [10 x [3 x i32]], [10 x [3 x i32]]* %2, i64 0, i64 %53
  %55 = getelementptr inbounds [3 x i32], [3 x i32]* %54, i64 0, i64 0
  %56 = load i32, i32* %55, align 4
  %57 = load i32, i32* %5, align 4
  %58 = sext i32 %57 to i64
  %59 = getelementptr inbounds [10 x [3 x i32]], [10 x [3 x i32]]* %2, i64 0, i64 %58
  %60 = getelementptr inbounds [3 x i32], [3 x i32]* %59, i64 0, i64 0
  %61 = load i32, i32* %60, align 4
  %62 = sub nsw i32 %56, %61
  %63 = load i32, i32* %3, align 4
  %64 = sext i32 %63 to i64
  %65 = getelementptr inbounds [10 x [3 x i32]], [10 x [3 x i32]]* %2, i64 0, i64 %64
  %66 = getelementptr inbounds [3 x i32], [3 x i32]* %65, i64 0, i64 0
  %67 = load i32, i32* %66, align 4
  %68 = load i32, i32* %5, align 4
  %69 = sext i32 %68 to i64
  %70 = getelementptr inbounds [10 x [3 x i32]], [10 x [3 x i32]]* %2, i64 0, i64 %69
  %71 = getelementptr inbounds [3 x i32], [3 x i32]* %70, i64 0, i64 0
  %72 = load i32, i32* %71, align 4
  %73 = sub nsw i32 %67, %72
  %74 = mul nsw i32 %62, %73
  %75 = load i32, i32* %3, align 4
  %76 = sext i32 %75 to i64
  %77 = getelementptr inbounds [10 x [3 x i32]], [10 x [3 x i32]]* %2, i64 0, i64 %76
  %78 = getelementptr inbounds [3 x i32], [3 x i32]* %77, i64 0, i64 1
  %79 = load i32, i32* %78, align 4
  %80 = load i32, i32* %5, align 4
  %81 = sext i32 %80 to i64
  %82 = getelementptr inbounds [10 x [3 x i32]], [10 x [3 x i32]]* %2, i64 0, i64 %81
  %83 = getelementptr inbounds [3 x i32], [3 x i32]* %82, i64 0, i64 1
  %84 = load i32, i32* %83, align 4
  %85 = sub nsw i32 %79, %84
  %86 = load i32, i32* %3, align 4
  %87 = sext i32 %86 to i64
  %88 = getelementptr inbounds [10 x [3 x i32]], [10 x [3 x i32]]* %2, i64 0, i64 %87
  %89 = getelementptr inbounds [3 x i32], [3 x i32]* %88, i64 0, i64 1
  %90 = load i32, i32* %89, align 4
  %91 = load i32, i32* %5, align 4
  %92 = sext i32 %91 to i64
  %93 = getelementptr inbounds [10 x [3 x i32]], [10 x [3 x i32]]* %2, i64 0, i64 %92
  %94 = getelementptr inbounds [3 x i32], [3 x i32]* %93, i64 0, i64 1
  %95 = load i32, i32* %94, align 4
  %96 = sub nsw i32 %90, %95
  %97 = mul nsw i32 %85, %96
  %98 = add nsw i32 %74, %97
  %99 = load i32, i32* %3, align 4
  %100 = sext i32 %99 to i64
  %101 = getelementptr inbounds [10 x [3 x i32]], [10 x [3 x i32]]* %2, i64 0, i64 %100
  %102 = getelementptr inbounds [3 x i32], [3 x i32]* %101, i64 0, i64 2
  %103 = load i32, i32* %102, align 4
  %104 = load i32, i32* %5, align 4
  %105 = sext i32 %104 to i64
  %106 = getelementptr inbounds [10 x [3 x i32]], [10 x [3 x i32]]* %2, i64 0, i64 %105
  %107 = getelementptr inbounds [3 x i32], [3 x i32]* %106, i64 0, i64 2
  %108 = load i32, i32* %107, align 4
  %109 = sub nsw i32 %103, %108
  %110 = load i32, i32* %3, align 4
  %111 = sext i32 %110 to i64
  %112 = getelementptr inbounds [10 x [3 x i32]], [10 x [3 x i32]]* %2, i64 0, i64 %111
  %113 = getelementptr inbounds [3 x i32], [3 x i32]* %112, i64 0, i64 2
  %114 = load i32, i32* %113, align 4
  %115 = load i32, i32* %5, align 4
  %116 = sext i32 %115 to i64
  %117 = getelementptr inbounds [10 x [3 x i32]], [10 x [3 x i32]]* %2, i64 0, i64 %116
  %118 = getelementptr inbounds [3 x i32], [3 x i32]* %117, i64 0, i64 2
  %119 = load i32, i32* %118, align 4
  %120 = sub nsw i32 %114, %119
  %121 = mul nsw i32 %109, %120
  %122 = add nsw i32 %98, %121
  %123 = sitofp i32 %122 to float
  store float %123, float* %14, align 4
  %124 = load float, float* %14, align 4
  %125 = fpext float %124 to double
  %126 = call double @sqrt(double %125) #3
  %127 = fptrunc double %126 to float
  %128 = load i32, i32* %7, align 4
  %129 = sext i32 %128 to i64
  %130 = getelementptr inbounds [45 x float], [45 x float]* %12, i64 0, i64 %129
  store float %127, float* %130, align 4
  %131 = load i32, i32* %3, align 4
  %132 = load i32, i32* %7, align 4
  %133 = sext i32 %132 to i64
  %134 = getelementptr inbounds [45 x i32], [45 x i32]* %8, i64 0, i64 %133
  store i32 %131, i32* %134, align 4
  %135 = load i32, i32* %5, align 4
  %136 = load i32, i32* %7, align 4
  %137 = sext i32 %136 to i64
  %138 = getelementptr inbounds [45 x i32], [45 x i32]* %9, i64 0, i64 %137
  store i32 %135, i32* %138, align 4
  %139 = load i32, i32* %7, align 4
  %140 = add nsw i32 %139, 1
  store i32 %140, i32* %7, align 4
  br label %141

141:                                              ; preds = %51
  %142 = load i32, i32* %5, align 4
  %143 = add nsw i32 %142, 1
  store i32 %143, i32* %5, align 4
  br label %47

144:                                              ; preds = %47
  br label %145

145:                                              ; preds = %144
  %146 = load i32, i32* %3, align 4
  %147 = add nsw i32 %146, 1
  store i32 %147, i32* %3, align 4
  br label %40

148:                                              ; preds = %40
  %149 = load i32, i32* %7, align 4
  %150 = sub nsw i32 %149, 1
  store i32 %150, i32* %3, align 4
  br label %151

151:                                              ; preds = %233, %148
  %152 = load i32, i32* %3, align 4
  %153 = icmp sgt i32 %152, 0
  br i1 %153, label %154, label %236

154:                                              ; preds = %151
  %155 = load i32, i32* %7, align 4
  %156 = sub nsw i32 %155, 1
  store i32 %156, i32* %4, align 4
  br label %157

157:                                              ; preds = %229, %154
  %158 = load i32, i32* %4, align 4
  %159 = load i32, i32* %7, align 4
  %160 = load i32, i32* %3, align 4
  %161 = sub nsw i32 %159, %160
  %162 = sub nsw i32 %161, 1
  %163 = icmp sgt i32 %158, %162
  br i1 %163, label %164, label %232

164:                                              ; preds = %157
  %165 = load i32, i32* %4, align 4
  %166 = sext i32 %165 to i64
  %167 = getelementptr inbounds [45 x float], [45 x float]* %12, i64 0, i64 %166
  %168 = load float, float* %167, align 4
  %169 = load i32, i32* %4, align 4
  %170 = sub nsw i32 %169, 1
  %171 = sext i32 %170 to i64
  %172 = getelementptr inbounds [45 x float], [45 x float]* %12, i64 0, i64 %171
  %173 = load float, float* %172, align 4
  %174 = fcmp ogt float %168, %173
  br i1 %174, label %175, label %227

175:                                              ; preds = %164
  %176 = load i32, i32* %4, align 4
  %177 = sext i32 %176 to i64
  %178 = getelementptr inbounds [45 x float], [45 x float]* %12, i64 0, i64 %177
  %179 = load float, float* %178, align 4
  store float %179, float* %13, align 4
  %180 = load i32, i32* %4, align 4
  %181 = sub nsw i32 %180, 1
  %182 = sext i32 %181 to i64
  %183 = getelementptr inbounds [45 x float], [45 x float]* %12, i64 0, i64 %182
  %184 = load float, float* %183, align 4
  %185 = load i32, i32* %4, align 4
  %186 = sext i32 %185 to i64
  %187 = getelementptr inbounds [45 x float], [45 x float]* %12, i64 0, i64 %186
  store float %184, float* %187, align 4
  %188 = load float, float* %13, align 4
  %189 = load i32, i32* %4, align 4
  %190 = sub nsw i32 %189, 1
  %191 = sext i32 %190 to i64
  %192 = getelementptr inbounds [45 x float], [45 x float]* %12, i64 0, i64 %191
  store float %188, float* %192, align 4
  %193 = load i32, i32* %4, align 4
  %194 = sext i32 %193 to i64
  %195 = getelementptr inbounds [45 x i32], [45 x i32]* %8, i64 0, i64 %194
  %196 = load i32, i32* %195, align 4
  store i32 %196, i32* %10, align 4
  %197 = load i32, i32* %4, align 4
  %198 = sub nsw i32 %197, 1
  %199 = sext i32 %198 to i64
  %200 = getelementptr inbounds [45 x i32], [45 x i32]* %8, i64 0, i64 %199
  %201 = load i32, i32* %200, align 4
  %202 = load i32, i32* %4, align 4
  %203 = sext i32 %202 to i64
  %204 = getelementptr inbounds [45 x i32], [45 x i32]* %8, i64 0, i64 %203
  store i32 %201, i32* %204, align 4
  %205 = load i32, i32* %10, align 4
  %206 = load i32, i32* %4, align 4
  %207 = sub nsw i32 %206, 1
  %208 = sext i32 %207 to i64
  %209 = getelementptr inbounds [45 x i32], [45 x i32]* %8, i64 0, i64 %208
  store i32 %205, i32* %209, align 4
  %210 = load i32, i32* %4, align 4
  %211 = sext i32 %210 to i64
  %212 = getelementptr inbounds [45 x i32], [45 x i32]* %9, i64 0, i64 %211
  %213 = load i32, i32* %212, align 4
  store i32 %213, i32* %10, align 4
  %214 = load i32, i32* %4, align 4
  %215 = sub nsw i32 %214, 1
  %216 = sext i32 %215 to i64
  %217 = getelementptr inbounds [45 x i32], [45 x i32]* %9, i64 0, i64 %216
  %218 = load i32, i32* %217, align 4
  %219 = load i32, i32* %4, align 4
  %220 = sext i32 %219 to i64
  %221 = getelementptr inbounds [45 x i32], [45 x i32]* %9, i64 0, i64 %220
  store i32 %218, i32* %221, align 4
  %222 = load i32, i32* %10, align 4
  %223 = load i32, i32* %4, align 4
  %224 = sub nsw i32 %223, 1
  %225 = sext i32 %224 to i64
  %226 = getelementptr inbounds [45 x i32], [45 x i32]* %9, i64 0, i64 %225
  store i32 %222, i32* %226, align 4
  br label %228

227:                                              ; preds = %164
  br label %228

228:                                              ; preds = %227, %175
  br label %229

229:                                              ; preds = %228
  %230 = load i32, i32* %4, align 4
  %231 = add nsw i32 %230, -1
  store i32 %231, i32* %4, align 4
  br label %157

232:                                              ; preds = %157
  br label %233

233:                                              ; preds = %232
  %234 = load i32, i32* %3, align 4
  %235 = add nsw i32 %234, -1
  store i32 %235, i32* %3, align 4
  br label %151

236:                                              ; preds = %151
  store i32 0, i32* %11, align 4
  br label %237

237:                                              ; preds = %296, %236
  %238 = load i32, i32* %11, align 4
  %239 = load i32, i32* %7, align 4
  %240 = icmp slt i32 %238, %239
  br i1 %240, label %241, label %299

241:                                              ; preds = %237
  %242 = load i32, i32* %11, align 4
  %243 = sext i32 %242 to i64
  %244 = getelementptr inbounds [45 x i32], [45 x i32]* %8, i64 0, i64 %243
  %245 = load i32, i32* %244, align 4
  %246 = sext i32 %245 to i64
  %247 = getelementptr inbounds [10 x [3 x i32]], [10 x [3 x i32]]* %2, i64 0, i64 %246
  %248 = getelementptr inbounds [3 x i32], [3 x i32]* %247, i64 0, i64 0
  %249 = load i32, i32* %248, align 4
  %250 = load i32, i32* %11, align 4
  %251 = sext i32 %250 to i64
  %252 = getelementptr inbounds [45 x i32], [45 x i32]* %8, i64 0, i64 %251
  %253 = load i32, i32* %252, align 4
  %254 = sext i32 %253 to i64
  %255 = getelementptr inbounds [10 x [3 x i32]], [10 x [3 x i32]]* %2, i64 0, i64 %254
  %256 = getelementptr inbounds [3 x i32], [3 x i32]* %255, i64 0, i64 1
  %257 = load i32, i32* %256, align 4
  %258 = load i32, i32* %11, align 4
  %259 = sext i32 %258 to i64
  %260 = getelementptr inbounds [45 x i32], [45 x i32]* %8, i64 0, i64 %259
  %261 = load i32, i32* %260, align 4
  %262 = sext i32 %261 to i64
  %263 = getelementptr inbounds [10 x [3 x i32]], [10 x [3 x i32]]* %2, i64 0, i64 %262
  %264 = getelementptr inbounds [3 x i32], [3 x i32]* %263, i64 0, i64 2
  %265 = load i32, i32* %264, align 4
  %266 = load i32, i32* %11, align 4
  %267 = sext i32 %266 to i64
  %268 = getelementptr inbounds [45 x i32], [45 x i32]* %9, i64 0, i64 %267
  %269 = load i32, i32* %268, align 4
  %270 = sext i32 %269 to i64
  %271 = getelementptr inbounds [10 x [3 x i32]], [10 x [3 x i32]]* %2, i64 0, i64 %270
  %272 = getelementptr inbounds [3 x i32], [3 x i32]* %271, i64 0, i64 0
  %273 = load i32, i32* %272, align 4
  %274 = load i32, i32* %11, align 4
  %275 = sext i32 %274 to i64
  %276 = getelementptr inbounds [45 x i32], [45 x i32]* %9, i64 0, i64 %275
  %277 = load i32, i32* %276, align 4
  %278 = sext i32 %277 to i64
  %279 = getelementptr inbounds [10 x [3 x i32]], [10 x [3 x i32]]* %2, i64 0, i64 %278
  %280 = getelementptr inbounds [3 x i32], [3 x i32]* %279, i64 0, i64 1
  %281 = load i32, i32* %280, align 4
  %282 = load i32, i32* %11, align 4
  %283 = sext i32 %282 to i64
  %284 = getelementptr inbounds [45 x i32], [45 x i32]* %9, i64 0, i64 %283
  %285 = load i32, i32* %284, align 4
  %286 = sext i32 %285 to i64
  %287 = getelementptr inbounds [10 x [3 x i32]], [10 x [3 x i32]]* %2, i64 0, i64 %286
  %288 = getelementptr inbounds [3 x i32], [3 x i32]* %287, i64 0, i64 2
  %289 = load i32, i32* %288, align 4
  %290 = load i32, i32* %11, align 4
  %291 = sext i32 %290 to i64
  %292 = getelementptr inbounds [45 x float], [45 x float]* %12, i64 0, i64 %291
  %293 = load float, float* %292, align 4
  %294 = fpext float %293 to double
  %295 = call i32 (i8*, ...) @printf(i8* getelementptr inbounds ([28 x i8], [28 x i8]* @.str.1, i64 0, i64 0), i32 %249, i32 %257, i32 %265, i32 %273, i32 %281, i32 %289, double %294)
  br label %296

296:                                              ; preds = %241
  %297 = load i32, i32* %11, align 4
  %298 = add nsw i32 %297, 1
  store i32 %298, i32* %11, align 4
  br label %237

299:                                              ; preds = %237
  ret i32 0
}